target datalayout = "e-m:e-p270:32:32-p271:32:32-p272:64:64-i64:64-i128:128-f80:128-n8:16:32:64-S128"
target triple = "x86_64-pc-linux-gnu"

@.str.24 = private unnamed_addr constant [26 x i8] c"../openssl/test/destest.c\00", align 1
@.str.67 = private unnamed_addr constant [16 x i8] c"\22efGnQx2725bI2\22\00", align 1
@.str.68 = private unnamed_addr constant [27 x i8] c"DES_crypt(\22testing\22, \22ef\22)\00", align 1
@.str.69 = private unnamed_addr constant [14 x i8] c"efGnQx2725bI2\00", align 1
@.str.70 = private unnamed_addr constant [8 x i8] c"testing\00", align 1
@.str.71 = private unnamed_addr constant [3 x i8] c"ef\00", align 1
@.str.72 = private unnamed_addr constant [16 x i8] c"\22yA1Rp/1hZXIJk\22\00", align 1
@.str.73 = private unnamed_addr constant [28 x i8] c"DES_crypt(\22bca76;23\22, \22yA\22)\00", align 1
@.str.74 = private unnamed_addr constant [14 x i8] c"yA1Rp/1hZXIJk\00", align 1
@.str.75 = private unnamed_addr constant [9 x i8] c"bca76;23\00", align 1
@.str.76 = private unnamed_addr constant [3 x i8] c"yA\00", align 1
@.str.77 = private unnamed_addr constant [30 x i8] c"DES_crypt(\22testing\22, \22y\\202\22)\00", align 1
@.str.78 = private unnamed_addr constant [3 x i8] c"y\82\00", align 1
@.str.79 = private unnamed_addr constant [28 x i8] c"DES_crypt(\22testing\22, \22\\0A\22)\00", align 1
@.str.80 = private unnamed_addr constant [3 x i8] c"\00A\00", align 1
@.str.81 = private unnamed_addr constant [26 x i8] c"DES_crypt(\22testing\22, \22A\22)\00", align 1
@.str.82 = private unnamed_addr constant [2 x i8] c"A\00", align 1

; Function Attrs: nounwind uwtable
define internal i32 @test_des_crypt() #0 {
  %1 = alloca i32, align 4
  %2 = call ptr @DES_crypt(ptr noundef @.str.70, ptr noundef @.str.71)
  %3 = call i32 @test_str_eq(ptr noundef @.str.24, i32 noundef 483, ptr noundef @.str.67, ptr noundef @.str.68, ptr noundef @.str.69, ptr noundef %2)
  %4 = icmp ne i32 %3, 0
  br i1 %4, label %6, label %5

5:                                                ; preds = %0
  store i32 0, ptr %1, align 4
  br label %27

6:                                                ; preds = %0
  %7 = call ptr @DES_crypt(ptr noundef @.str.75, ptr noundef @.str.76)
  %8 = call i32 @test_str_eq(ptr noundef @.str.24, i32 noundef 485, ptr noundef @.str.72, ptr noundef @.str.73, ptr noundef @.str.74, ptr noundef %7)
  %9 = icmp ne i32 %8, 0
  br i1 %9, label %11, label %10

10:                                               ; preds = %6
  store i32 0, ptr %1, align 4
  br label %27

11:                                               ; preds = %6
  %12 = call ptr @DES_crypt(ptr noundef @.str.70, ptr noundef @.str.78)
  %13 = call i32 @test_ptr_null(ptr noundef @.str.24, i32 noundef 488, ptr noundef @.str.77, ptr noundef %12)
  %14 = icmp ne i32 %13, 0
  br i1 %14, label %16, label %15

15:                                               ; preds = %11
  store i32 0, ptr %1, align 4
  br label %27

16:                                               ; preds = %11
  %17 = call ptr @DES_crypt(ptr noundef @.str.70, ptr noundef @.str.80)
  %18 = call i32 @test_ptr_null(ptr noundef @.str.24, i32 noundef 490, ptr noundef @.str.79, ptr noundef %17)
  %19 = icmp ne i32 %18, 0
  br i1 %19, label %21, label %20

20:                                               ; preds = %16
  store i32 0, ptr %1, align 4
  br label %27

21:                                               ; preds = %16
  %22 = call ptr @DES_crypt(ptr noundef @.str.70, ptr noundef @.str.82)
  %23 = call i32 @test_ptr_null(ptr noundef @.str.24, i32 noundef 492, ptr noundef @.str.81, ptr noundef %22)
  %24 = icmp ne i32 %23, 0
  br i1 %24, label %26, label %25

25:                                               ; preds = %21
  store i32 0, ptr %1, align 4
  br label %27

26:                                               ; preds = %21
  store i32 1, ptr %1, align 4
  br label %27

27:                                               ; preds = %26, %25, %20, %15, %10, %5
  %28 = load i32, ptr %1, align 4
  ret i32 %28
}