; Function Attrs: nounwind uwtable
define internal range(i32 0, 2) i32 @test_des_crypt() #0 {
  %1 = tail call ptr @DES_crypt(ptr noundef nonnull @.str.70, ptr noundef nonnull @.str.71) #6
  %2 = tail call i32 @test_str_eq(ptr noundef nonnull @.str.24, i32 noundef 483, ptr noundef nonnull @.str.67, ptr noundef nonnull @.str.68, ptr noundef nonnull @.str.69, ptr noundef %1) #6
  %.not = icmp eq i32 %2, 0
  br i1 %.not, label %15, label %3

3:                                                ; preds = %0
  %4 = tail call ptr @DES_crypt(ptr noundef nonnull @.str.75, ptr noundef nonnull @.str.76) #6
  %5 = tail call i32 @test_str_eq(ptr noundef nonnull @.str.24, i32 noundef 485, ptr noundef nonnull @.str.72, ptr noundef nonnull @.str.73, ptr noundef nonnull @.str.74, ptr noundef %4) #6
  %.not1 = icmp eq i32 %5, 0
  br i1 %.not1, label %15, label %6

6:                                                ; preds = %3
  %7 = tail call ptr @DES_crypt(ptr noundef nonnull @.str.70, ptr noundef nonnull @.str.78) #6
  %8 = tail call i32 @test_ptr_null(ptr noundef nonnull @.str.24, i32 noundef 488, ptr noundef nonnull @.str.77, ptr noundef %7) #6
  %.not2 = icmp eq i32 %8, 0
  br i1 %.not2, label %15, label %9

9:                                                ; preds = %6
  %10 = tail call ptr @DES_crypt(ptr noundef nonnull @.str.70, ptr noundef nonnull @.str.80) #6
  %11 = tail call i32 @test_ptr_null(ptr noundef nonnull @.str.24, i32 noundef 490, ptr noundef nonnull @.str.79, ptr noundef %10) #6
  %.not3 = icmp eq i32 %11, 0
  br i1 %.not3, label %15, label %12

12:                                               ; preds = %9
  %13 = tail call ptr @DES_crypt(ptr noundef nonnull @.str.70, ptr noundef nonnull @.str.82) #6
  %14 = tail call i32 @test_ptr_null(ptr noundef nonnull @.str.24, i32 noundef 492, ptr noundef nonnull @.str.81, ptr noundef %13) #6
  %.not4 = icmp ne i32 %14, 0
  %. = zext i1 %.not4 to i32
  br label %15

15:                                               ; preds = %12, %9, %6, %3, %0
  %.0 = phi i32 [ 0, %0 ], [ 0, %3 ], [ 0, %6 ], [ 0, %9 ], [ %., %12 ]
  ret i32 %.0
}